#include <math.h>
#include <stdio.h>
#include <stdlib.h>
#include <string.h>

void main()
{
	char c1[100],c2[100];
	int i,j,a,b,k=0;
	scanf("%s %s",c1,c2);
	a=strlen(c1);
	b=strlen(c2);
	if(a!=b) printf("NO\n");
	else
	{
		for(i=0;i<a;i++)
		{
			for(j=0;j<a;j++)
			{
				if(c1[i]==c2[j])
					k++;
			}
		}
		for(i=0;i<a;i++)
		{
			for(j=i+1;j<a;j++)
			{
				if(c1[i]==c1[j])
					k=k-2;
			}
		}
		if(k==a) printf("YES\n");
		else printf("NO\n");
	}
}